; Function Attrs: mustprogress nofree norecurse nosync nounwind willreturn memory(readwrite, inaccessiblemem: none) uwtable
define dso_local void @_ZN11btMultiBody12addLinkForceEiRK9btVector3(ptr nocapture noundef nonnull readonly align 8 dereferenceable(640) %this, i32 noundef %i, ptr nocapture noundef nonnull readonly align 4 dereferenceable(16) %f) local_unnamed_addr #8 align 2 {
entry:
  %m_data.i = getelementptr inbounds i8, ptr %this, i64 192
  %0 = load ptr, ptr %m_data.i, align 8
  %idxprom.i = sext i32 %i to i64
  %m_appliedForce = getelementptr inbounds %struct.btMultibodyLink, ptr %0, i64 %idxprom.i, i32 15
  %1 = load float, ptr %f, align 4
  %2 = load float, ptr %m_appliedForce, align 4
  %add.i = fadd float %1, %2
  store float %add.i, ptr %m_appliedForce, align 4
  %arrayidx5.i = getelementptr inbounds i8, ptr %f, i64 4
  %3 = load float, ptr %arrayidx5.i, align 4
  %arrayidx7.i = getelementptr inbounds i8, ptr %m_appliedForce, i64 4
  %4 = load float, ptr %arrayidx7.i, align 4
  %add8.i = fadd float %3, %4
  store float %add8.i, ptr %arrayidx7.i, align 4
  %arrayidx10.i = getelementptr inbounds i8, ptr %f, i64 8
  %5 = load float, ptr %arrayidx10.i, align 4
  %arrayidx12.i = getelementptr inbounds i8, ptr %m_appliedForce, i64 8
  %6 = load float, ptr %arrayidx12.i, align 4
  %add13.i = fadd float %5, %6
  store float %add13.i, ptr %arrayidx12.i, align 4
  ret void
}